target datalayout = "e-m:e-p270:32:32-p271:32:32-p272:64:64-i64:64-i128:128-f80:128-n8:16:32:64-S128"
target triple = "x86_64-pc-linux-gnu"

%struct._ts = type { ptr, ptr, ptr, i64, %struct.anon.805, i32, i32, i32, i32, i32, i32, i32, i32, ptr, ptr, ptr, ptr, ptr, ptr, ptr, ptr, i32, ptr, i64, i64, ptr, i64, i32, ptr, ptr, ptr, i64, i64, ptr, ptr, ptr, %struct._err_stackitem, ptr, i64, ptr, ptr }
%struct.anon.805 = type { i32 }
%struct._err_stackitem = type { ptr, ptr }

@_Py_tss_tstate = hidden thread_local global ptr null, align 8
@__func__.PyInterpreterState_Get = private unnamed_addr constant [23 x i8] c"PyInterpreterState_Get\00", align 1
@.str.17 = private unnamed_addr constant [23 x i8] c"no current interpreter\00", align 1
@.str.162 = private unnamed_addr constant [173 x i8] c"the function must be called with the GIL held, after Python initialization and before Python finalization, but the GIL is released (the current Python thread state is NULL)\00", align 1

; Function Attrs: inlinehint nounwind uwtable
define internal void @_Py_EnsureFuncTstateNotNULL(ptr noundef %0, ptr noundef %1) #1 {
  %3 = alloca ptr, align 8
  %4 = alloca ptr, align 8
  store ptr %0, ptr %3, align 8, !tbaa !198
  store ptr %1, ptr %4, align 8, !tbaa !4
  %5 = load ptr, ptr %4, align 8, !tbaa !4
  %6 = icmp eq ptr %5, null
  br i1 %6, label %7, label %9

7:                                                ; preds = %2
  %8 = load ptr, ptr %3, align 8, !tbaa !198
  call void @_Py_FatalErrorFunc(ptr noundef %8, ptr noundef @.str.162) #11
  unreachable

9:                                                ; preds = %2
  ret void
}

; Function Attrs: inlinehint nounwind uwtable
define internal ptr @current_fast_get() #1 {
  %1 = call align 8 ptr @llvm.threadlocal.address.p0(ptr align 8 @_Py_tss_tstate)
  %2 = load ptr, ptr %1, align 8, !tbaa !4
  ret ptr %2
}

; Function Attrs: nounwind uwtable
define dso_local ptr @PyInterpreterState_Get() #0 {
  %1 = alloca ptr, align 8
  %2 = alloca ptr, align 8
  call void @llvm.lifetime.start.p0(i64 8, ptr %1) #10
  %3 = call ptr @current_fast_get()
  store ptr %3, ptr %1, align 8, !tbaa !4
  %4 = load ptr, ptr %1, align 8, !tbaa !4
  call void @_Py_EnsureFuncTstateNotNULL(ptr noundef @__func__.PyInterpreterState_Get, ptr noundef %4)
  call void @llvm.lifetime.start.p0(i64 8, ptr %2) #10
  %5 = load ptr, ptr %1, align 8, !tbaa !4
  %6 = getelementptr inbounds nuw %struct._ts, ptr %5, i32 0, i32 2
  %7 = load ptr, ptr %6, align 8, !tbaa !231
  store ptr %7, ptr %2, align 8, !tbaa !204
  %8 = load ptr, ptr %2, align 8, !tbaa !204
  %9 = icmp eq ptr %8, null
  br i1 %9, label %10, label %11

10:                                               ; preds = %0
  call void @_Py_FatalErrorFunc(ptr noundef @__func__.PyInterpreterState_Get, ptr noundef @.str.17) #11
  unreachable

11:                                               ; preds = %0
  %12 = load ptr, ptr %2, align 8, !tbaa !204
  call void @llvm.lifetime.end.p0(i64 8, ptr %2) #10
  call void @llvm.lifetime.end.p0(i64 8, ptr %1) #10
  ret ptr %12
}