; Function Attrs: nounwind uwtable
define dso_local nonnull ptr @PyInterpreterState_Get() local_unnamed_addr #1 {
  %1 = tail call align 8 ptr @llvm.threadlocal.address.p0(ptr align 8 @_Py_tss_tstate)
  %2 = load ptr, ptr %1, align 8, !tbaa !4
  %3 = icmp eq ptr %2, null
  br i1 %3, label %4, label %_Py_EnsureFuncTstateNotNULL.exit

4:                                                ; preds = %0
  tail call void @_Py_FatalErrorFunc(ptr noundef nonnull @__func__.PyInterpreterState_Get, ptr noundef nonnull @.str.162) #17
  unreachable

_Py_EnsureFuncTstateNotNULL.exit:                 ; preds = %0
  %5 = getelementptr inbounds nuw i8, ptr %2, i64 16
  %6 = load ptr, ptr %5, align 8, !tbaa !221
  %7 = icmp eq ptr %6, null
  br i1 %7, label %8, label %9

8:                                                ; preds = %_Py_EnsureFuncTstateNotNULL.exit
  tail call void @_Py_FatalErrorFunc(ptr noundef nonnull @__func__.PyInterpreterState_Get, ptr noundef nonnull @.str.17) #17
  unreachable

9:                                                ; preds = %_Py_EnsureFuncTstateNotNULL.exit
  ret ptr %6
}